; Function Attrs: nounwind uwtable
define dso_local i32 @clar_test_run() local_unnamed_addr #1 {
  %1 = load ptr, ptr getelementptr inbounds nuw (i8, ptr @_clar, i64 80), align 8, !tbaa !28
  %.not = icmp eq ptr %1, null
  br i1 %.not, label %.preheader, label %.preheader9

.preheader9:                                      ; preds = %0, %.preheader9
  %.011 = phi ptr [ %7, %.preheader9 ], [ %1, %0 ]
  %2 = load i64, ptr %.011, align 8, !tbaa !25
  %3 = getelementptr inbounds nuw [6 x %struct.clar_suite], ptr @_clar_suites, i64 0, i64 %2
  %4 = getelementptr inbounds nuw i8, ptr %.011, i64 8
  %5 = load ptr, ptr %4, align 8, !tbaa !27
  tail call fastcc void @clar_run_suite(ptr noundef nonnull %3, ptr noundef %5)
  %6 = getelementptr inbounds nuw i8, ptr %.011, i64 16
  %7 = load ptr, ptr %6, align 8, !tbaa !29
  %.not8 = icmp eq ptr %7, null
  br i1 %.not8, label %.loopexit, label %.preheader9, !llvm.loop !50

.preheader:                                       ; preds = %0, %.preheader
  %.0612 = phi i64 [ %9, %.preheader ], [ 0, %0 ]
  %8 = getelementptr inbounds nuw [6 x %struct.clar_suite], ptr @_clar_suites, i64 0, i64 %.0612
  tail call fastcc void @clar_run_suite(ptr noundef nonnull %8, ptr noundef null)
  %9 = add nuw nsw i64 %.0612, 1
  %exitcond.not = icmp eq i64 %9, 6
  br i1 %exitcond.not, label %.loopexit, label %.preheader, !llvm.loop !51

.loopexit:                                        ; preds = %.preheader9, %.preheader
  %10 = load i32, ptr getelementptr inbounds nuw (i8, ptr @_clar, i64 28), align 4, !tbaa !52
  ret i32 %10
}